target datalayout = "e-m:e-p270:32:32-p271:32:32-p272:64:64-i64:64-i128:128-f80:128-n8:16:32:64-S128"
target triple = "x86_64-pc-linux-gnu"

@.str.14 = private unnamed_addr constant [30 x i8] c"../openssl/test/asynciotest.c\00", align 1

; Function Attrs: nounwind uwtable
define internal i32 @async_free(ptr noundef %0) #0 {
  %2 = alloca i32, align 4
  %3 = alloca ptr, align 8
  %4 = alloca ptr, align 8
  %5 = alloca i32, align 4
  store ptr %0, ptr %3, align 8, !tbaa !15
  call void @llvm.lifetime.start.p0(i64 8, ptr %4) #6
  %6 = load ptr, ptr %3, align 8, !tbaa !15
  %7 = icmp eq ptr %6, null
  br i1 %7, label %8, label %9

8:                                                ; preds = %1
  store i32 0, ptr %2, align 4
  store i32 1, ptr %5, align 4
  br label %15

9:                                                ; preds = %1
  %10 = load ptr, ptr %3, align 8, !tbaa !15
  %11 = call ptr @BIO_get_data(ptr noundef %10)
  store ptr %11, ptr %4, align 8, !tbaa !25
  %12 = load ptr, ptr %4, align 8, !tbaa !25
  call void @CRYPTO_free(ptr noundef %12, ptr noundef @.str.14, i32 noundef 82)
  %13 = load ptr, ptr %3, align 8, !tbaa !15
  call void @BIO_set_data(ptr noundef %13, ptr noundef null)
  %14 = load ptr, ptr %3, align 8, !tbaa !15
  call void @BIO_set_init(ptr noundef %14, i32 noundef 0)
  store i32 1, ptr %2, align 4
  store i32 1, ptr %5, align 4
  br label %15

15:                                               ; preds = %9, %8
  call void @llvm.lifetime.end.p0(i64 8, ptr %4) #6
  %16 = load i32, ptr %2, align 4
  ret i32 %16
}