; Function Attrs: nounwind uwtable
define internal range(i32 0, 2) i32 @async_free(ptr noundef %0) #1 {
  %2 = icmp eq ptr %0, null
  br i1 %2, label %5, label %3

3:                                                ; preds = %1
  %4 = tail call ptr @BIO_get_data(ptr noundef nonnull %0) #6
  tail call void @CRYPTO_free(ptr noundef %4, ptr noundef nonnull @.str.14, i32 noundef 82) #6
  tail call void @BIO_set_data(ptr noundef nonnull %0, ptr noundef null) #6
  tail call void @BIO_set_init(ptr noundef nonnull %0, i32 noundef 0) #6
  br label %5

5:                                                ; preds = %1, %3
  %.0 = phi i32 [ 1, %3 ], [ 0, %1 ]
  ret i32 %.0
}